target datalayout = "e-m:e-p270:32:32-p271:32:32-p272:64:64-i64:64-i128:128-f80:128-n8:16:32:64-S128"
target triple = "x86_64-unknown-linux-gnu"

%"struct.std::_Vector_base.3" = type { %"struct.std::_Vector_base<long, std::allocator<long>>::_Vector_impl" }
%"struct.std::_Vector_base<long, std::allocator<long>>::_Vector_impl" = type { %"struct.std::_Vector_base<long, std::allocator<long>>::_Vector_impl_data" }
%"struct.std::_Vector_base<long, std::allocator<long>>::_Vector_impl_data" = type { ptr, ptr, ptr }
%"class.std::vector.2" = type { %"struct.std::_Vector_base.3" }
%"struct.std::_Vector_base.11" = type { %"struct.std::_Vector_base<std::__cxx11::basic_string<char>, std::allocator<std::__cxx11::basic_string<char>>>::_Vector_impl" }
%"struct.std::_Vector_base<std::__cxx11::basic_string<char>, std::allocator<std::__cxx11::basic_string<char>>>::_Vector_impl" = type { %"struct.std::_Vector_base<std::__cxx11::basic_string<char>, std::allocator<std::__cxx11::basic_string<char>>>::_Vector_impl_data" }
%"struct.std::_Vector_base<std::__cxx11::basic_string<char>, std::allocator<std::__cxx11::basic_string<char>>>::_Vector_impl_data" = type { ptr, ptr, ptr }
%"class.arrow::Tensor" = type { ptr, %"class.std::shared_ptr", %"class.std::shared_ptr.7", %"class.std::vector.2", %"class.std::vector.2", %"class.std::vector.10" }
%"class.std::shared_ptr" = type { %"class.std::__shared_ptr" }
%"class.std::__shared_ptr" = type { ptr, %"class.std::__shared_count" }
%"class.std::__shared_count" = type { ptr }
%"class.std::shared_ptr.7" = type { %"class.std::__shared_ptr.8" }
%"class.std::__shared_ptr.8" = type { ptr, %"class.std::__shared_count" }
%"class.std::vector.10" = type { %"struct.std::_Vector_base.11" }
%"class.arrow::Buffer" = type { ptr, i8, i8, ptr, i64, i64, i8, %"class.std::shared_ptr.7", %"class.std::shared_ptr.25" }
%"class.std::shared_ptr.25" = type { %"class.std::__shared_ptr.26" }
%"class.std::__shared_ptr.26" = type { ptr, %"class.std::__shared_count" }

; Function Attrs: mustprogress nounwind uwtable
define linkonce_odr noundef ptr @_ZNKSt12__shared_ptrIN5arrow6BufferELN9__gnu_cxx12_Lock_policyE2EE3getEv(ptr noundef nonnull align 8 dereferenceable(16) %this) #1 comdat align 2 {
entry:
  %this.addr = alloca ptr, align 8
  store ptr %this, ptr %this.addr, align 8
  %this1 = load ptr, ptr %this.addr, align 8
  %_M_ptr = getelementptr inbounds %"class.std::__shared_ptr.8", ptr %this1, i32 0, i32 0
  %0 = load ptr, ptr %_M_ptr, align 8
  ret ptr %0
}

; Function Attrs: mustprogress nounwind uwtable
define linkonce_odr noundef ptr @_ZNKSt19__shared_ptr_accessIN5arrow6BufferELN9__gnu_cxx12_Lock_policyE2ELb0ELb0EE6_M_getEv(ptr noundef nonnull align 1 dereferenceable(1) %this) #1 comdat align 2 {
entry:
  %this.addr = alloca ptr, align 8
  store ptr %this, ptr %this.addr, align 8
  %this1 = load ptr, ptr %this.addr, align 8
  %call = call noundef ptr @_ZNKSt12__shared_ptrIN5arrow6BufferELN9__gnu_cxx12_Lock_policyE2EE3getEv(ptr noundef nonnull align 8 dereferenceable(16) %this1) #5
  ret ptr %call
}

; Function Attrs: mustprogress nounwind uwtable
define linkonce_odr noundef ptr @_ZNK5arrow6Buffer4dataEv(ptr noundef nonnull align 8 dereferenceable(80) %this) #1 comdat align 2 {
entry:
  %this.addr = alloca ptr, align 8
  store ptr %this, ptr %this.addr, align 8
  %this1 = load ptr, ptr %this.addr, align 8
  %is_cpu_ = getelementptr inbounds %"class.arrow::Buffer", ptr %this1, i32 0, i32 2
  %0 = load i8, ptr %is_cpu_, align 1
  %tobool = trunc i8 %0 to i1
  %lnot = xor i1 %tobool, true
  %lnot2 = xor i1 %lnot, true
  br i1 %lnot2, label %cond.true, label %cond.false

cond.true:                                        ; preds = %entry
  %data_ = getelementptr inbounds %"class.arrow::Buffer", ptr %this1, i32 0, i32 3
  %1 = load ptr, ptr %data_, align 8
  br label %cond.end

cond.false:                                       ; preds = %entry
  br label %cond.end

cond.end:                                         ; preds = %cond.false, %cond.true
  %cond = phi ptr [ %1, %cond.true ], [ null, %cond.false ]
  ret ptr %cond
}

; Function Attrs: mustprogress nounwind uwtable
define linkonce_odr noundef ptr @_ZNKSt19__shared_ptr_accessIN5arrow6BufferELN9__gnu_cxx12_Lock_policyE2ELb0ELb0EEptEv(ptr noundef nonnull align 1 dereferenceable(1) %this) #1 comdat align 2 {
entry:
  %this.addr = alloca ptr, align 8
  store ptr %this, ptr %this.addr, align 8
  %this1 = load ptr, ptr %this.addr, align 8
  %call = call noundef ptr @_ZNKSt19__shared_ptr_accessIN5arrow6BufferELN9__gnu_cxx12_Lock_policyE2ELb0ELb0EE6_M_getEv(ptr noundef nonnull align 1 dereferenceable(1) %this1) #5
  ret ptr %call
}

; Function Attrs: mustprogress nounwind uwtable
define linkonce_odr noundef i64 @_ZNKSt6vectorIlSaIlEE4sizeEv(ptr noundef nonnull align 8 dereferenceable(24) %this) #1 comdat align 2 {
entry:
  %this.addr = alloca ptr, align 8
  store ptr %this, ptr %this.addr, align 8
  %this1 = load ptr, ptr %this.addr, align 8
  %_M_impl = getelementptr inbounds %"struct.std::_Vector_base.3", ptr %this1, i32 0, i32 0
  %_M_finish = getelementptr inbounds %"struct.std::_Vector_base<long, std::allocator<long>>::_Vector_impl_data", ptr %_M_impl, i32 0, i32 1
  %0 = load ptr, ptr %_M_finish, align 8
  %_M_impl2 = getelementptr inbounds %"struct.std::_Vector_base.3", ptr %this1, i32 0, i32 0
  %_M_start = getelementptr inbounds %"struct.std::_Vector_base<long, std::allocator<long>>::_Vector_impl_data", ptr %_M_impl2, i32 0, i32 0
  %1 = load ptr, ptr %_M_start, align 8
  %sub.ptr.lhs.cast = ptrtoint ptr %0 to i64
  %sub.ptr.rhs.cast = ptrtoint ptr %1 to i64
  %sub.ptr.sub = sub i64 %sub.ptr.lhs.cast, %sub.ptr.rhs.cast
  %sub.ptr.div = sdiv exact i64 %sub.ptr.sub, 8
  ret i64 %sub.ptr.div
}

; Function Attrs: mustprogress nounwind uwtable
define linkonce_odr noundef nonnull align 8 dereferenceable(24) ptr @_ZNK5arrow6Tensor7stridesEv(ptr noundef nonnull align 8 dereferenceable(112) %this) #1 comdat align 2 {
entry:
  %this.addr = alloca ptr, align 8
  store ptr %this, ptr %this.addr, align 8
  %this1 = load ptr, ptr %this.addr, align 8
  %strides_ = getelementptr inbounds %"class.arrow::Tensor", ptr %this1, i32 0, i32 4
  ret ptr %strides_
}

; Function Attrs: mustprogress uwtable
define linkonce_odr noundef ptr @_ZNK5arrow6Tensor8raw_dataEv(ptr noundef nonnull align 8 dereferenceable(112) %this) #0 comdat align 2 {
entry:
  %this.addr = alloca ptr, align 8
  store ptr %this, ptr %this.addr, align 8
  %this1 = load ptr, ptr %this.addr, align 8
  %data_ = getelementptr inbounds %"class.arrow::Tensor", ptr %this1, i32 0, i32 2
  %call = call noundef ptr @_ZNKSt19__shared_ptr_accessIN5arrow6BufferELN9__gnu_cxx12_Lock_policyE2ELb0ELb0EEptEv(ptr noundef nonnull align 1 dereferenceable(1) %data_) #5
  %call2 = call noundef ptr @_ZNK5arrow6Buffer4dataEv(ptr noundef nonnull align 8 dereferenceable(80) %call)
  ret ptr %call2
}

; Function Attrs: mustprogress nounwind uwtable
define linkonce_odr noundef nonnull align 8 dereferenceable(8) ptr @_ZNKSt6vectorIlSaIlEEixEm(ptr noundef nonnull align 8 dereferenceable(24) %this, i64 noundef %__n) #1 comdat align 2 {
entry:
  %this.addr = alloca ptr, align 8
  %__n.addr = alloca i64, align 8
  store ptr %this, ptr %this.addr, align 8
  store i64 %__n, ptr %__n.addr, align 8
  %this1 = load ptr, ptr %this.addr, align 8
  %_M_impl = getelementptr inbounds %"struct.std::_Vector_base.3", ptr %this1, i32 0, i32 0
  %_M_start = getelementptr inbounds %"struct.std::_Vector_base<long, std::allocator<long>>::_Vector_impl_data", ptr %_M_impl, i32 0, i32 0
  %0 = load ptr, ptr %_M_start, align 8
  %1 = load i64, ptr %__n.addr, align 8
  %add.ptr = getelementptr inbounds i64, ptr %0, i64 %1
  ret ptr %add.ptr
}

; Function Attrs: mustprogress nounwind uwtable
define linkonce_odr noundef nonnull align 8 dereferenceable(24) ptr @_ZNK5arrow6Tensor5shapeEv(ptr noundef nonnull align 8 dereferenceable(112) %this) #1 comdat align 2 {
entry:
  %this.addr = alloca ptr, align 8
  store ptr %this, ptr %this.addr, align 8
  %this1 = load ptr, ptr %this.addr, align 8
  %shape_ = getelementptr inbounds %"class.arrow::Tensor", ptr %this1, i32 0, i32 3
  ret ptr %shape_
}

; Function Attrs: mustprogress nounwind uwtable
define linkonce_odr noundef i32 @_ZNK5arrow6Tensor4ndimEv(ptr noundef nonnull align 8 dereferenceable(112) %this) #1 comdat align 2 {
entry:
  %this.addr = alloca ptr, align 8
  store ptr %this, ptr %this.addr, align 8
  %this1 = load ptr, ptr %this.addr, align 8
  %shape_ = getelementptr inbounds %"class.arrow::Tensor", ptr %this1, i32 0, i32 3
  %call = call noundef i64 @_ZNKSt6vectorIlSaIlEE4sizeEv(ptr noundef nonnull align 8 dereferenceable(24) %shape_) #5
  %conv = trunc i64 %call to i32
  ret i32 %conv
}

; Function Attrs: mustprogress uwtable
define internal noundef i64 @_ZN5arrow12_GLOBAL__N_125StridedTensorCountNonZeroINS_8Int8TypeEEElilRKNS_6TensorE(i32 noundef %dim_index, i64 noundef %offset, ptr noundef nonnull align 8 dereferenceable(112) %tensor) #0 {
entry:
  %retval = alloca i64, align 8
  %dim_index.addr = alloca i32, align 4
  %offset.addr = alloca i64, align 8
  %tensor.addr = alloca ptr, align 8
  %zero = alloca i8, align 1
  %nnz = alloca i64, align 8
  %i = alloca i64, align 8
  %ptr = alloca ptr, align 8
  %elem = alloca ptr, align 8
  %i14 = alloca i64, align 8
  store i32 %dim_index, ptr %dim_index.addr, align 4
  store i64 %offset, ptr %offset.addr, align 8
  store ptr %tensor, ptr %tensor.addr, align 8
  store i8 0, ptr %zero, align 1
  store i64 0, ptr %nnz, align 8
  %0 = load i32, ptr %dim_index.addr, align 4
  %1 = load ptr, ptr %tensor.addr, align 8
  %call = call noundef i32 @_ZNK5arrow6Tensor4ndimEv(ptr noundef nonnull align 8 dereferenceable(112) %1)
  %sub = sub nsw i32 %call, 1
  %cmp = icmp eq i32 %0, %sub
  br i1 %cmp, label %if.then, label %if.end13

if.then:                                          ; preds = %entry
  store i64 0, ptr %i, align 8
  br label %for.cond

for.cond:                                         ; preds = %for.inc, %if.then
  %2 = load i64, ptr %i, align 8
  %3 = load ptr, ptr %tensor.addr, align 8
  %call1 = call noundef nonnull align 8 dereferenceable(24) ptr @_ZNK5arrow6Tensor5shapeEv(ptr noundef nonnull align 8 dereferenceable(112) %3)
  %4 = load i32, ptr %dim_index.addr, align 4
  %conv = sext i32 %4 to i64
  %call2 = call noundef nonnull align 8 dereferenceable(8) ptr @_ZNKSt6vectorIlSaIlEEixEm(ptr noundef nonnull align 8 dereferenceable(24) %call1, i64 noundef %conv) #5
  %5 = load i64, ptr %call2, align 8
  %cmp3 = icmp slt i64 %2, %5
  br i1 %cmp3, label %for.body, label %for.end

for.body:                                         ; preds = %for.cond
  %6 = load ptr, ptr %tensor.addr, align 8
  %call4 = call noundef ptr @_ZNK5arrow6Tensor8raw_dataEv(ptr noundef nonnull align 8 dereferenceable(112) %6)
  %7 = load i64, ptr %offset.addr, align 8
  %add.ptr = getelementptr inbounds i8, ptr %call4, i64 %7
  %8 = load i64, ptr %i, align 8
  %9 = load ptr, ptr %tensor.addr, align 8
  %call5 = call noundef nonnull align 8 dereferenceable(24) ptr @_ZNK5arrow6Tensor7stridesEv(ptr noundef nonnull align 8 dereferenceable(112) %9)
  %10 = load i32, ptr %dim_index.addr, align 4
  %conv6 = sext i32 %10 to i64
  %call7 = call noundef nonnull align 8 dereferenceable(8) ptr @_ZNKSt6vectorIlSaIlEEixEm(ptr noundef nonnull align 8 dereferenceable(24) %call5, i64 noundef %conv6) #5
  %11 = load i64, ptr %call7, align 8
  %mul = mul nsw i64 %8, %11
  %add.ptr8 = getelementptr inbounds i8, ptr %add.ptr, i64 %mul
  store ptr %add.ptr8, ptr %ptr, align 8
  %12 = load ptr, ptr %ptr, align 8
  store ptr %12, ptr %elem, align 8
  %13 = load ptr, ptr %elem, align 8
  %14 = load i8, ptr %13, align 1
  %conv9 = sext i8 %14 to i32
  %cmp10 = icmp ne i32 %conv9, 0
  br i1 %cmp10, label %if.then11, label %if.end

if.then11:                                        ; preds = %for.body
  %15 = load i64, ptr %nnz, align 8
  %inc = add nsw i64 %15, 1
  store i64 %inc, ptr %nnz, align 8
  br label %if.end

if.end:                                           ; preds = %if.then11, %for.body
  br label %for.inc

for.inc:                                          ; preds = %if.end
  %16 = load i64, ptr %i, align 8
  %inc12 = add nsw i64 %16, 1
  store i64 %inc12, ptr %i, align 8
  br label %for.cond, !llvm.loop !17

for.end:                                          ; preds = %for.cond
  %17 = load i64, ptr %nnz, align 8
  store i64 %17, ptr %retval, align 8
  br label %return

if.end13:                                         ; preds = %entry
  store i64 0, ptr %i14, align 8
  br label %for.cond15

for.cond15:                                       ; preds = %for.inc27, %if.end13
  %18 = load i64, ptr %i14, align 8
  %19 = load ptr, ptr %tensor.addr, align 8
  %call16 = call noundef nonnull align 8 dereferenceable(24) ptr @_ZNK5arrow6Tensor5shapeEv(ptr noundef nonnull align 8 dereferenceable(112) %19)
  %20 = load i32, ptr %dim_index.addr, align 4
  %conv17 = sext i32 %20 to i64
  %call18 = call noundef nonnull align 8 dereferenceable(8) ptr @_ZNKSt6vectorIlSaIlEEixEm(ptr noundef nonnull align 8 dereferenceable(24) %call16, i64 noundef %conv17) #5
  %21 = load i64, ptr %call18, align 8
  %cmp19 = icmp slt i64 %18, %21
  br i1 %cmp19, label %for.body20, label %for.end29

for.body20:                                       ; preds = %for.cond15
  %22 = load i32, ptr %dim_index.addr, align 4
  %add = add nsw i32 %22, 1
  %23 = load i64, ptr %offset.addr, align 8
  %24 = load ptr, ptr %tensor.addr, align 8
  %call21 = call noundef i64 @_ZN5arrow12_GLOBAL__N_125StridedTensorCountNonZeroINS_8Int8TypeEEElilRKNS_6TensorE(i32 noundef %add, i64 noundef %23, ptr noundef nonnull align 8 dereferenceable(112) %24)
  %25 = load i64, ptr %nnz, align 8
  %add22 = add nsw i64 %25, %call21
  store i64 %add22, ptr %nnz, align 8
  %26 = load ptr, ptr %tensor.addr, align 8
  %call23 = call noundef nonnull align 8 dereferenceable(24) ptr @_ZNK5arrow6Tensor7stridesEv(ptr noundef nonnull align 8 dereferenceable(112) %26)
  %27 = load i32, ptr %dim_index.addr, align 4
  %conv24 = sext i32 %27 to i64
  %call25 = call noundef nonnull align 8 dereferenceable(8) ptr @_ZNKSt6vectorIlSaIlEEixEm(ptr noundef nonnull align 8 dereferenceable(24) %call23, i64 noundef %conv24) #5
  %28 = load i64, ptr %call25, align 8
  %29 = load i64, ptr %offset.addr, align 8
  %add26 = add nsw i64 %29, %28
  store i64 %add26, ptr %offset.addr, align 8
  br label %for.inc27

for.inc27:                                        ; preds = %for.body20
  %30 = load i64, ptr %i14, align 8
  %inc28 = add nsw i64 %30, 1
  store i64 %inc28, ptr %i14, align 8
  br label %for.cond15, !llvm.loop !18

for.end29:                                        ; preds = %for.cond15
  %31 = load i64, ptr %nnz, align 8
  store i64 %31, ptr %retval, align 8
  br label %return

return:                                           ; preds = %for.end29, %for.end
  %32 = load i64, ptr %retval, align 8
  ret i64 %32
}